; Function Attrs: nounwind uwtable
define dso_local i64 @cash_pl(ptr noundef readonly captures(none) %0) local_unnamed_addr #0 {
  %2 = getelementptr inbounds nuw i8, ptr %0, i64 32
  %3 = load i64, ptr %2, align 8
  %4 = getelementptr inbounds nuw i8, ptr %0, i64 48
  %5 = load i64, ptr %4, align 8
  %6 = tail call { i64, i1 } @llvm.sadd.with.overflow.i64(i64 %3, i64 %5)
  %7 = extractvalue { i64, i1 } %6, 1
  br i1 %7, label %8, label %cash_pl_cash.exit, !prof !17

8:                                                ; preds = %1
  %9 = tail call zeroext i1 @errstart_cold(i32 noundef 21, ptr noundef null) #16
  tail call void @llvm.assume(i1 %9)
  %10 = tail call i32 @errcode(i32 noundef 50331778) #13
  %11 = tail call i32 (ptr, ...) @errmsg(ptr noundef nonnull @.str.25) #13
  tail call void @errfinish(ptr noundef nonnull @.str.7, i32 noundef 98, ptr noundef nonnull @__func__.cash_pl_cash) #13
  unreachable

cash_pl_cash.exit:                                ; preds = %1
  %12 = extractvalue { i64, i1 } %6, 0
  ret i64 %12
}